; Function Attrs: nounwind uwtable
define internal range(i32 -1, 1) i32 @HeapCCollection_clear(ptr noundef %0) #0 {
  %2 = tail call ptr @PyObject_GetItemData(ptr noundef %0) #8
  %.not = icmp eq ptr %2, null
  br i1 %.not, label %.loopexit, label %3

3:                                                ; preds = %1
  %4 = getelementptr i8, ptr %0, i64 8
  %.val4.i = load ptr, ptr %4, align 8, !tbaa !9
  %.not.i17 = icmp eq ptr %.val4.i, @PyLong_Type
  br i1 %.not.i17, label %5, label %6

5:                                                ; preds = %3
  tail call void @__assert_fail(ptr noundef nonnull @.str.81, ptr noundef nonnull @.str.82, i32 noundef 282, ptr noundef nonnull @__PRETTY_FUNCTION__.Py_SIZE) #10
  unreachable

6:                                                ; preds = %3
  %.not3.i = icmp eq ptr %.val4.i, @PyBool_Type
  br i1 %.not3.i, label %7, label %Py_SET_SIZE.exit

7:                                                ; preds = %6
  tail call void @__assert_fail(ptr noundef nonnull @.str.83, ptr noundef nonnull @.str.82, i32 noundef 283, ptr noundef nonnull @__PRETTY_FUNCTION__.Py_SIZE) #10
  unreachable

Py_SET_SIZE.exit:                                 ; preds = %6
  %8 = getelementptr inbounds nuw i8, ptr %0, i64 16
  %9 = load i64, ptr %8, align 8, !tbaa !49
  store i64 0, ptr %8, align 8, !tbaa !49
  %10 = icmp sgt i64 %9, 0
  br i1 %10, label %.lr.ph, label %.loopexit

.lr.ph:                                           ; preds = %Py_SET_SIZE.exit, %Py_DECREF.exit
  %.01321 = phi i64 [ %19, %Py_DECREF.exit ], [ 0, %Py_SET_SIZE.exit ]
  %11 = getelementptr ptr, ptr %2, i64 %.01321
  %12 = load ptr, ptr %11, align 8, !tbaa !23
  %.not16 = icmp eq ptr %12, null
  br i1 %.not16, label %Py_DECREF.exit, label %13

13:                                               ; preds = %.lr.ph
  store ptr null, ptr %11, align 8, !tbaa !23
  %14 = load i32, ptr %12, align 8, !tbaa !8
  %.not.i = icmp sgt i32 %14, -1
  br i1 %.not.i, label %15, label %Py_DECREF.exit

15:                                               ; preds = %13
  %16 = add nsw i32 %14, -1
  store i32 %16, ptr %12, align 8, !tbaa !8
  %17 = icmp eq i32 %16, 0
  br i1 %17, label %18, label %Py_DECREF.exit

18:                                               ; preds = %15
  tail call void @_Py_Dealloc(ptr noundef nonnull %12) #8
  br label %Py_DECREF.exit

Py_DECREF.exit:                                   ; preds = %18, %15, %13, %.lr.ph
  %19 = add nuw nsw i64 %.01321, 1
  %exitcond.not = icmp eq i64 %19, %9
  br i1 %exitcond.not, label %.loopexit, label %.lr.ph, !llvm.loop !64

.loopexit:                                        ; preds = %Py_DECREF.exit, %Py_SET_SIZE.exit, %1
  %.0 = phi i32 [ -1, %1 ], [ 0, %Py_SET_SIZE.exit ], [ 0, %Py_DECREF.exit ]
  ret i32 %.0
}